; Function Attrs: mustprogress uwtable
define noundef i64 @_ZN5dtm_t8save_regEj(ptr nocapture noundef nonnull align 8 dereferenceable(928) %0, i32 noundef %1) local_unnamed_addr #0 align 2 {
  %3 = getelementptr inbounds i8, ptr %0, i64 900
  %4 = load i32, ptr %3, align 4
  %5 = lshr i32 %4, 5
  %6 = zext nneg i32 %5 to i64
  %7 = alloca i32, i64 %6, align 16
  %8 = icmp eq i32 %4, 128
  %9 = icmp eq i32 %4, 64
  %10 = select i1 %9, i32 3276800, i32 2228224
  %11 = select i1 %8, i32 4325376, i32 %10
  %12 = or i32 %11, %1
  %13 = or i32 %12, 4096
  %14 = call noundef i32 @_ZN5dtm_t20run_abstract_commandEjPKjmPjm(ptr noundef nonnull align 8 dereferenceable(928) %0, i32 noundef %13, ptr noundef null, i64 noundef 0, ptr noundef nonnull %7, i64 noundef %6), !range !8
  %.not = icmp eq i32 %14, 0
  br i1 %.not, label %26, label %15

15:                                               ; preds = %2
  %16 = icmp ult i32 %14, 5
  br i1 %16, label %17, label %_ZN5dtm_t3dieEj.exit

17:                                               ; preds = %15
  %18 = zext nneg i32 %14 to i64
  %19 = getelementptr inbounds [5 x ptr], ptr @__const._ZN5dtm_t3dieEj.codes, i64 0, i64 %18
  %20 = load ptr, ptr %19, align 8
  br label %_ZN5dtm_t3dieEj.exit

_ZN5dtm_t3dieEj.exit:                             ; preds = %15, %17
  %.0.i = phi ptr [ %20, %17 ], [ @.str.5, %15 ]
  %21 = tail call i32 (ptr, ...) @printf(ptr noundef nonnull dereferenceable(1) @.str.6, ptr noundef nonnull @.str.7, i32 noundef 357, i32 noundef %14, ptr noundef %.0.i)
  %22 = tail call i32 (ptr, ...) @printf(ptr noundef nonnull dereferenceable(1) @.str.8, ptr noundef nonnull @.str.7, i32 noundef 358)
  %23 = getelementptr inbounds i8, ptr %0, i64 872
  store i64 8589934614, ptr %23, align 8
  %.sroa.22.0..sroa_idx.i.i.i = getelementptr inbounds i8, ptr %0, i64 880
  store i32 1792, ptr %.sroa.22.0..sroa_idx.i.i.i, align 8
  %24 = getelementptr inbounds i8, ptr %0, i64 728
  %25 = load ptr, ptr %24, align 8
  tail call void @_ZN9context_t9switch_toEv(ptr noundef nonnull align 8 dereferenceable(32) %25)
  br label %26

26:                                               ; preds = %_ZN5dtm_t3dieEj.exit, %2
  %27 = load i32, ptr %7, align 16
  %28 = zext i32 %27 to i64
  %29 = load i32, ptr %3, align 4
  %30 = icmp ugt i32 %29, 32
  br i1 %30, label %31, label %37

31:                                               ; preds = %26
  %32 = getelementptr inbounds i8, ptr %7, i64 4
  %33 = load i32, ptr %32, align 4
  %34 = zext i32 %33 to i64
  %35 = shl nuw i64 %34, 32
  %36 = or disjoint i64 %35, %28
  br label %37

37:                                               ; preds = %31, %26
  %.0 = phi i64 [ %36, %31 ], [ %28, %26 ]
  ret i64 %.0
}